(lp0
(S'furman_sahinidis'
p1
S'10sp-la1'
p2
S'lp_rounding'
p3
S'simple'
p4
I17
tp5
a(g1
g2
g3
S'gundersen'
p6
I15
tp7
a(g1
g2
g3
S'greedy'
p8
I16
tp9
a(g1
g2
S'lr_rounding'
p10
g4
I17
tp11
a(g1
g2
g10
g6
I16
tp12
a(g1
g2
g10
g8
I17
tp13
a(g1
g2
S'lp_relaxation'
p14
g4
F7.042298199767712
tp15
a(g1
g2
g14
g6
F7.570920938621445
tp16
a(g1
g2
g14
g8
F8.347190391251717
tp17
a(g1
S'10sp-ol1'
p18
g3
g4
I20
tp19
a(g1
g18
g3
g6
I19
tp20
a(g1
g18
g3
g8
I18
tp21
a(g1
g18
g10
g4
I22
tp22
a(g1
g18
g10
g6
I23
tp23
a(g1
g18
g10
g8
I18
tp24
a(g1
g18
g14
g4
F8.293302209408036
tp25
a(g1
g18
g14
g6
F8.860723389290008
tp26
a(g1
g18
g14
g8
F9.942994565497166
tp27
a(g1
S'10sp1'
p28
g3
g4
I18
tp29
a(g1
g28
g3
g6
I18
tp30
a(g1
g28
g3
g8
I18
tp31
a(g1
g28
g10
g4
I14
tp32
a(g1
g28
g10
g6
I17
tp33
a(g1
g28
g10
g8
I15
tp34
a(g1
g28
g14
g4
F7.1144180165561135
tp35
a(g1
g28
g14
g6
F7.235155050203894
tp36
a(g1
g28
g14
g8
F7.386800697371552
tp37
a(g1
S'12sp1'
p38
g3
g4
I17
tp39
a(g1
g38
g3
g6
I17
tp40
a(g1
g38
g3
g8
I16
tp41
a(g1
g38
g10
g4
I17
tp42
a(g1
g38
g10
g6
I17
tp43
a(g1
g38
g10
g8
I17
tp44
a(g1
g38
g14
g4
F10.055480717310488
tp45
a(g1
g38
g14
g6
F10.116656223691471
tp46
a(g1
g38
g14
g8
F10.262503485041027
tp47
a(g1
S'14sp1'
p48
g3
g4
I27
tp49
a(g1
g48
g3
g6
I20
tp50
a(g1
g48
g3
g8
I14
tp51
a(g1
g48
g10
g4
I22
tp52
a(g1
g48
g10
g6
I17
tp53
a(g1
g48
g10
g8
I20
tp54
a(g1
g48
g14
g4
F8.786718462577971
tp55
a(g1
g48
g14
g6
F8.91838199284557
tp56
a(g1
g48
g14
g8
F9.058930352002394
tp57
a(g1
S'15sp-tkm'
p58
g3
g4
I27
tp59
a(g1
g58
g3
g6
I27
tp60
a(g1
g58
g3
g8
I20
tp61
a(g1
g58
g10
g4
I25
tp62
a(g1
g58
g10
g6
I25
tp63
a(g1
g58
g10
g8
I22
tp64
a(g1
g58
g14
g4
F11.013047144468398
tp65
a(g1
g58
g14
g6
F11.46916593309631
tp66
a(g1
g58
g14
g8
F14.310488595869352
tp67
a(g1
S'20sp1'
p68
g3
g4
I22
tp69
a(g1
g68
g3
g6
I22
tp70
a(g1
g68
g3
g8
I22
tp71
a(g1
g68
g10
g4
I27
tp72
a(g1
g68
g10
g6
I24
tp73
a(g1
g68
g10
g8
I20
tp74
a(g1
g68
g14
g4
F11.745574007966848
tp75
a(g1
g68
g14
g6
F11.745574007966848
tp76
a(g1
g68
g14
g8
F11.745574007966848
tp77
a(g1
S'22sp-ph'
p78
g3
g4
I31
tp79
a(g1
g78
g3
g6
I30
tp80
a(g1
g78
g3
g8
I27
tp81
a(g1
g78
g10
g4
I32
tp82
a(g1
g78
g10
g6
I30
tp83
a(g1
g78
g10
g8
I28
tp84
a(g1
g78
g14
g4
F20.148200866919108
tp85
a(g1
g78
g14
g6
F20.88542146768387
tp86
a(g1
g78
g14
g8
F22.2268159965629
tp87
a(g1
S'22sp1'
p88
g3
g4
I45
tp89
a(g1
g88
g3
g6
I37
tp90
a(g1
g88
g3
g8
I35
tp91
a(g1
g88
g10
g4
I40
tp92
a(g1
g88
g10
g6
I44
tp93
a(g1
g88
g10
g8
I37
tp94
a(g1
g88
g14
g4
F13.655982500976492
tp95
a(g1
g88
g14
g6
F14.035102874713024
tp96
a(g1
g88
g14
g8
F15.859175028198
tp97
a(g1
S'23sp1'
p98
g3
g4
I40
tp99
a(g1
g98
g3
g6
I37
tp100
a(g1
g98
g3
g8
I32
tp101
a(g1
g98
g10
g4
I35
tp102
a(g1
g98
g10
g6
I33
tp103
a(g1
g98
g10
g8
I32
tp104
a(g1
g98
g14
g4
F13.313304155510684
tp105
a(g1
g98
g14
g6
F13.399431522680246
tp106
a(g1
g98
g14
g8
F13.403599004049928
tp107
a(g1
S'28sp-as1'
p108
g3
g4
I41
tp109
a(g1
g108
g3
g6
I30
tp110
a(g1
g108
g3
g8
I30
tp111
a(g1
g108
g10
g4
I45
tp112
a(g1
g108
g10
g6
I30
tp113
a(g1
g108
g10
g8
I30
tp114
a(g1
g108
g14
g4
F27.510613990925492
tp115
a(g1
g108
g14
g6
F27.958588924617914
tp116
a(g1
g108
g14
g8
F28.44557454190044
tp117
a(g1
S'37sp-yfyv'
p118
g3
g4
I56
tp119
a(g1
g118
g3
g6
I53
tp120
a(g1
g118
g3
g8
I44
tp121
a(g1
g118
g10
g4
I42
tp122
a(g1
g118
g10
g6
I42
tp123
a(g1
g118
g10
g8
I40
tp124
a(g1
g118
g14
g4
F31.96394418165353
tp125
a(g1
g118
g14
g6
F31.933604715588004
tp126
a(g1
g118
g14
g8
F32.279453822769185
tp127
a(g1
S'4sp1'
p128
g3
g4
I5
tp129
a(g1
g128
g3
g6
I5
tp130
a(g1
g128
g3
g8
I5
tp131
a(g1
g128
g10
g4
I5
tp132
a(g1
g128
g10
g6
I5
tp133
a(g1
g128
g10
g8
I5
tp134
a(g1
g128
g14
g4
F4.029240773263146
tp135
a(g1
g128
g14
g6
F4.064625388647761
tp136
a(g1
g128
g14
g8
F4.251835128519954
tp137
a(g1
S'6sp-cf1'
p138
g3
g4
I6
tp139
a(g1
g138
g3
g6
I6
tp140
a(g1
g138
g3
g8
I6
tp141
a(g1
g138
g10
g4
I6
tp142
a(g1
g138
g10
g6
I6
tp143
a(g1
g138
g10
g8
I6
tp144
a(g1
g138
g14
g4
F4.1
tp145
a(g1
g138
g14
g6
F4.1
tp146
a(g1
g138
g14
g8
F4.183333333333333
tp147
a(g1
S'6sp-gg1'
p148
g3
g4
I3
tp149
a(g1
g148
g3
g6
I3
tp150
a(g1
g148
g3
g8
I3
tp151
a(g1
g148
g10
g4
I3
tp152
a(g1
g148
g10
g6
I3
tp153
a(g1
g148
g10
g8
I3
tp154
a(g1
g148
g14
g4
F3.0
tp155
a(g1
g148
g14
g6
F3.0
tp156
a(g1
g148
g14
g8
F3.0
tp157
a(g1
S'6sp1'
p158
g3
g4
I8
tp159
a(g1
g158
g3
g6
I7
tp160
a(g1
g158
g3
g8
I8
tp161
a(g1
g158
g10
g4
I8
tp162
a(g1
g158
g10
g6
I7
tp163
a(g1
g158
g10
g8
I7
tp164
a(g1
g158
g14
g4
F4.000512477718359
tp165
a(g1
g158
g14
g6
F4.00051247771836
tp166
a(g1
g158
g14
g8
F4.003805385790679
tp167
a(g1
S'7sp-cm1'
p168
g3
g4
I11
tp169
a(g1
g168
g3
g6
I10
tp170
a(g1
g168
g3
g8
I10
tp171
a(g1
g168
g10
g4
I10
tp172
a(g1
g168
g10
g6
I10
tp173
a(g1
g168
g10
g8
I10
tp174
a(g1
g168
g14
g4
F6.605194023745144
tp175
a(g1
g168
g14
g6
F7.152658036968106
tp176
a(g1
g168
g14
g8
F8.403348078853424
tp177
a(g1
S'7sp-s1'
p178
g3
g4
I10
tp179
a(g1
g178
g3
g6
I10
tp180
a(g1
g178
g3
g8
I10
tp181
a(g1
g178
g10
g4
I10
tp182
a(g1
g178
g10
g6
I10
tp183
a(g1
g178
g10
g8
I10
tp184
a(g1
g178
g14
g4
F7.828879737128213
tp185
a(g1
g178
g14
g6
F7.828879737128213
tp186
a(g1
g178
g14
g8
F10.0
tp187
a(g1
S'7sp-torw1'
p188
g3
g4
I15
tp189
a(g1
g188
g3
g6
I15
tp190
a(g1
g188
g3
g8
I11
tp191
a(g1
g188
g10
g4
I14
tp192
a(g1
g188
g10
g6
I13
tp193
a(g1
g188
g10
g8
I12
tp194
a(g1
g188
g14
g4
F5.6837729062635916
tp195
a(g1
g188
g14
g6
F5.8412237028896445
tp196
a(g1
g188
g14
g8
F6.556771328799919
tp197
a(g1
S'7sp1'
p198
g3
g4
I10
tp199
a(g1
g198
g3
g6
I10
tp200
a(g1
g198
g3
g8
I8
tp201
a(g1
g198
g10
g4
I9
tp202
a(g1
g198
g10
g6
I9
tp203
a(g1
g198
g10
g8
I10
tp204
a(g1
g198
g14
g4
F5.002000572956455
tp205
a(g1
g198
g14
g6
F5.002000572956455
tp206
a(g1
g198
g14
g8
F5.005925704592688
tp207
a(g1
S'7sp2'
p208
g3
g4
I9
tp209
a(g1
g208
g3
g6
I7
tp210
a(g1
g208
g3
g8
I7
tp211
a(g1
g208
g10
g4
I7
tp212
a(g1
g208
g10
g6
I7
tp213
a(g1
g208
g10
g8
I7
tp214
a(g1
g208
g14
g4
F4.369854477339182
tp215
a(g1
g208
g14
g6
F4.369854477339182
tp216
a(g1
g208
g14
g8
F4.369854477339182
tp217
a(g1
S'7sp4'
p218
g3
g4
I11
tp219
a(g1
g218
g3
g6
I11
tp220
a(g1
g218
g3
g8
I8
tp221
a(g1
g218
g10
g4
I9
tp222
a(g1
g218
g10
g6
I9
tp223
a(g1
g218
g10
g8
I8
tp224
a(g1
g218
g14
g4
F7.01488917210113
tp225
a(g1
g218
g14
g6
F7.01488917210113
tp226
a(g1
g218
g14
g8
F7.114051698964783
tp227
a(g1
S'8sp-fs1'
p228
g3
g4
I15
tp229
a(g1
g228
g3
g6
I13
tp230
a(g1
g228
g3
g8
I13
tp231
a(g1
g228
g10
g4
I14
tp232
a(g1
g228
g10
g6
I13
tp233
a(g1
g228
g10
g8
I13
tp234
a(g1
g228
g14
g4
F6.894282570616156
tp235
a(g1
g228
g14
g6
F7.49748793441173
tp236
a(g1
g228
g14
g8
F8.692486115320989
tp237
a(g1
S'8sp1'
p238
g3
g4
I11
tp239
a(g1
g238
g3
g6
I11
tp240
a(g1
g238
g3
g8
I11
tp241
a(g1
g238
g10
g4
I12
tp242
a(g1
g238
g10
g6
I12
tp243
a(g1
g238
g10
g8
I11
tp244
a(g1
g238
g14
g4
F6.1519480857861675
tp245
a(g1
g238
g14
g6
F6.224991564047037
tp246
a(g1
g238
g14
g8
F6.296376811594203
tp247
a(g1
S'9sp-al1'
p248
g3
g4
I17
tp249
a(g1
g248
g3
g6
I15
tp250
a(g1
g248
g3
g8
I16
tp251
a(g1
g248
g10
g4
I17
tp252
a(g1
g248
g10
g6
I16
tp253
a(g1
g248
g10
g8
I17
tp254
a(g1
g248
g14
g4
F7.042298199767712
tp255
a(g1
g248
g14
g6
F7.570920938621445
tp256
a(g1
g248
g14
g8
F8.347190391251717
tp257
a(g1
S'9sp-has1'
p258
g3
g4
I16
tp259
a(g1
g258
g3
g6
I15
tp260
a(g1
g258
g3
g8
I15
tp261
a(g1
g258
g10
g4
I14
tp262
a(g1
g258
g10
g6
I15
tp263
a(g1
g258
g10
g8
I14
tp264
a(g1
g258
g14
g4
F6.9112917350848395
tp265
a(g1
g258
g14
g6
F7.137680623973727
tp266
a(g1
g258
g14
g8
F9.975832741031432
tp267
a(S'chen_grossman_miller'
p268
S'balanced10'
p269
g3
g4
I61
tp270
a(g268
g269
g3
g6
I46
tp271
a(g268
g269
g3
g8
I39
tp272
a(g268
g269
g10
g4
I46
tp273
a(g268
g269
g10
g6
I43
tp274
a(g268
g269
g10
g8
I42
tp275
a(g268
g269
g14
g4
F13.50974131097156
tp276
a(g268
g269
g14
g6
F13.920837301814789
tp277
a(g268
g269
g14
g8
F15.289128894894477
tp278
a(g268
S'balanced12'
p279
g3
g4
I71
tp280
a(g268
g279
g3
g6
I52
tp281
a(g268
g279
g3
g8
I42
tp282
a(g268
g279
g10
g4
I57
tp283
a(g268
g279
g10
g6
I56
tp284
a(g268
g279
g10
g8
I48
tp285
a(g268
g279
g14
g4
F15.690117608308146
tp286
a(g268
g279
g14
g6
F16.156045962798576
tp287
a(g268
g279
g14
g8
F17.482843613274763
tp288
a(g268
S'balanced15'
p289
g3
g4
I91
tp290
a(g268
g289
g3
g6
I63
tp291
a(g268
g289
g3
g8
I60
tp292
a(g268
g289
g10
g4
I91
tp293
a(g268
g289
g10
g6
I69
tp294
a(g268
g289
g10
g8
I69
tp295
a(g268
g289
g14
g4
F18.841612867679213
tp296
a(g268
g289
g14
g6
F19.313538448163875
tp297
a(g268
g289
g14
g8
F21.563617075185924
tp298
a(g268
S'balanced5'
p299
g3
g4
I26
tp300
a(g268
g299
g3
g6
I19
tp301
a(g268
g299
g3
g8
I18
tp302
a(g268
g299
g10
g4
I20
tp303
a(g268
g299
g10
g6
I22
tp304
a(g268
g299
g10
g8
I17
tp305
a(g268
g299
g14
g4
F8.091944287596462
tp306
a(g268
g299
g14
g6
F8.3992363163825
tp307
a(g268
g299
g14
g8
F8.95034242947906
tp308
a(g268
S'balanced8'
p309
g3
g4
I42
tp310
a(g268
g309
g3
g6
I33
tp311
a(g268
g309
g3
g8
I28
tp312
a(g268
g309
g10
g4
I38
tp313
a(g268
g309
g10
g6
I35
tp314
a(g268
g309
g10
g8
I33
tp315
a(g268
g309
g14
g4
F11.539637253671781
tp316
a(g268
g309
g14
g6
F11.884606663653996
tp317
a(g268
g309
g14
g8
F12.75526586304117
tp318
a(g268
S'unbalanced10'
p319
g3
g4
I52
tp320
a(g268
g319
g3
g6
I49
tp321
a(g268
g319
g3
g8
I38
tp322
a(g268
g319
g10
g4
I53
tp323
a(g268
g319
g10
g6
I54
tp324
a(g268
g319
g10
g8
I46
tp325
a(g268
g319
g14
g4
F14.310970880607002
tp326
a(g268
g319
g14
g6
F15.047209409133497
tp327
a(g268
g319
g14
g8
F16.96123683525532
tp328
a(g268
S'unbalanced15'
p329
g3
g4
I73
tp330
a(g268
g329
g3
g6
I60
tp331
a(g268
g329
g3
g8
I57
tp332
a(g268
g329
g10
g4
I76
tp333
a(g268
g329
g10
g6
I62
tp334
a(g268
g329
g10
g8
I64
tp335
a(g268
g329
g14
g4
F19.624963361336835
tp336
a(g268
g329
g14
g6
F20.588736006083796
tp337
a(g268
g329
g14
g8
F23.17289621755137
tp338
a(g268
S'unbalanced17'
p339
g3
g4
I96
tp340
a(g268
g339
g3
g6
I78
tp341
a(g268
g339
g3
g8
I70
tp342
a(g268
g339
g10
g4
I101
tp343
a(g268
g339
g10
g6
I84
tp344
a(g268
g339
g10
g8
I78
tp345
a(g268
g339
g14
g4
F21.897779328589348
tp346
a(g268
g339
g14
g6
F23.525711228659066
tp347
a(g268
g339
g14
g8
F27.483494714520177
tp348
a(g268
S'unbalanced20'
p349
g3
g4
I132
tp350
a(g268
g349
g3
g6
I95
tp351
a(g268
g349
g3
g8
I89
tp352
a(g268
g349
g10
g4
I137
tp353
a(g268
g349
g10
g6
I99
tp354
a(g268
g349
g10
g8
I89
tp355
a(g268
g349
g14
g4
F25.889918620037548
tp356
a(g268
g349
g14
g6
F27.71618829849936
tp357
a(g268
g349
g14
g8
F32.43210292395853
tp358
a(g268
S'unbalanced5'
p359
g3
g4
I23
tp360
a(g268
g359
g3
g6
I22
tp361
a(g268
g359
g3
g8
I19
tp362
a(g268
g359
g10
g4
I21
tp363
a(g268
g359
g10
g6
I23
tp364
a(g268
g359
g10
g8
I20
tp365
a(g268
g359
g14
g4
F8.342677675267433
tp366
a(g268
g359
g14
g6
F8.816345355105325
tp367
a(g268
g359
g14
g8
F10.926404544949508
tp368
a(S'grossman_random'
p369
S'balanced12_random0'
p370
g3
g4
I73
tp371
a(g369
g370
g3
g6
I56
tp372
a(g369
g370
g3
g8
I42
tp373
a(g369
g370
g10
g4
I61
tp374
a(g369
g370
g10
g6
I52
tp375
a(g369
g370
g10
g8
I48
tp376
a(g369
g370
g14
g4
F15.758245333453138
tp377
a(g369
g370
g14
g6
F16.214053574586828
tp378
a(g369
g370
g14
g8
F17.507029209645715
tp379
a(g369
S'balanced12_random1'
p380
g3
g4
I62
tp381
a(g369
g380
g3
g6
I56
tp382
a(g369
g380
g3
g8
I45
tp383
a(g369
g380
g10
g4
I60
tp384
a(g369
g380
g10
g6
I54
tp385
a(g369
g380
g10
g8
I49
tp386
a(g369
g380
g14
g4
F15.666261083576448
tp387
a(g369
g380
g14
g6
F16.061951959717117
tp388
a(g369
g380
g14
g8
F17.37082441782617
tp389
a(g369
S'balanced12_random2'
p390
g3
g4
I66
tp391
a(g369
g390
g3
g6
I51
tp392
a(g369
g390
g3
g8
I42
tp393
a(g369
g390
g10
g4
I53
tp394
a(g369
g390
g10
g6
I57
tp395
a(g369
g390
g10
g8
I49
tp396
a(g369
g390
g14
g4
F15.67357100415924
tp397
a(g369
g390
g14
g6
F16.135198952124767
tp398
a(g369
g390
g14
g8
F17.4032973664237
tp399
a(g369
S'balanced15_random0'
p400
g3
g4
I93
tp401
a(g369
g400
g3
g6
I68
tp402
a(g369
g400
g3
g8
I60
tp403
a(g369
g400
g10
g4
I75
tp404
a(g369
g400
g10
g6
I73
tp405
a(g369
g400
g10
g8
I61
tp406
a(g369
g400
g14
g4
F18.590819636941283
tp407
a(g369
g400
g14
g6
F19.189282740661092
tp408
a(g369
g400
g14
g8
F21.469595187705394
tp409
a(g369
S'balanced15_random1'
p410
g3
g4
I96
tp411
a(g369
g410
g3
g6
I68
tp412
a(g369
g410
g3
g8
I56
tp413
a(g369
g410
g10
g4
I79
tp414
a(g369
g410
g10
g6
I73
tp415
a(g369
g410
g10
g8
I65
tp416
a(g369
g410
g14
g4
F18.861922117199946
tp417
a(g369
g410
g14
g6
F19.38371550850849
tp418
a(g369
g410
g14
g8
F21.593341517791448
tp419
a(g369
S'balanced15_random2'
p420
g3
g4
I102
tp421
a(g369
g420
g3
g6
I64
tp422
a(g369
g420
g3
g8
I54
tp423
a(g369
g420
g10
g4
I86
tp424
a(g369
g420
g10
g6
I76
tp425
a(g369
g420
g10
g8
I69
tp426
a(g369
g420
g14
g4
F18.72815507848228
tp427
a(g369
g420
g14
g6
F19.40811299437181
tp428
a(g369
g420
g14
g8
F21.95456016488338
tp429
a(g369
S'unbalanced17_random0'
p430
g3
g4
I106
tp431
a(g369
g430
g3
g6
I77
tp432
a(g369
g430
g3
g8
I74
tp433
a(g369
g430
g10
g4
I108
tp434
a(g369
g430
g10
g6
I95
tp435
a(g369
g430
g10
g8
I80
tp436
a(g369
g430
g14
g4
F22.47920158865472
tp437
a(g369
g430
g14
g6
F23.966217001932918
tp438
a(g369
g430
g14
g8
F27.642000332329406
tp439
a(g369
S'unbalanced17_random1'
p440
g3
g4
I116
tp441
a(g369
g440
g3
g6
I82
tp442
a(g369
g440
g3
g8
I74
tp443
a(g369
g440
g10
g4
I99
tp444
a(g369
g440
g10
g6
I91
tp445
a(g369
g440
g10
g8
I74
tp446
a(g369
g440
g14
g4
F22.426649398079956
tp447
a(g369
g440
g14
g6
F23.893824716530432
tp448
a(g369
g440
g14
g8
F27.655882827248682
tp449
a(g369
S'unbalanced17_random2'
p450
g3
g4
I101
tp451
a(g369
g450
g3
g6
I84
tp452
a(g369
g450
g3
g8
I70
tp453
a(g369
g450
g10
g4
I94
tp454
a(g369
g450
g10
g6
I92
tp455
a(g369
g450
g10
g8
I79
tp456
a(g369
g450
g14
g4
F21.988970086015463
tp457
a(g369
g450
g14
g6
F23.606563829230907
tp458
a(g369
g450
g14
g8
F27.735283252297414
tp459
a(g369
S'unbalanced20_random0'
p460
g3
g4
I131
tp461
a(g369
g460
g3
g6
I95
tp462
a(g369
g460
g3
g8
I93
tp463
a(g369
g460
g10
g4
I136
tp464
a(g369
g460
g10
g6
I103
tp465
a(g369
g460
g10
g8
I93
tp466
a(g369
g460
g14
g4
F26.02120287822344
tp467
a(g369
g460
g14
g6
F27.90614526331416
tp468
a(g369
g460
g14
g8
F32.492393248230314
tp469
a(g369
S'unbalanced20_random1'
p470
g3
g4
I138
tp471
a(g369
g470
g3
g6
I91
tp472
a(g369
g470
g3
g8
I83
tp473
a(g369
g470
g10
g4
I139
tp474
a(g369
g470
g10
g6
I104
tp475
a(g369
g470
g10
g8
I89
tp476
a(g369
g470
g14
g4
F26.00651982327897
tp477
a(g369
g470
g14
g6
F27.742400717136988
tp478
a(g369
g470
g14
g8
F32.637193540286084
tp479
a(g369
S'unbalanced20_random2'
p480
g3
g4
I138
tp481
a(g369
g480
g3
g6
I102
tp482
a(g369
g480
g3
g8
I87
tp483
a(g369
g480
g10
g4
I131
tp484
a(g369
g480
g10
g6
I100
tp485
a(g369
g480
g10
g8
I86
tp486
a(g369
g480
g14
g4
F25.684248445651523
tp487
a(g369
g480
g14
g6
F27.666639609264287
tp488
a(g369
g480
g14
g8
F32.597348515374605
tp489
a.